target datalayout = "e-m:e-p270:32:32-p271:32:32-p272:64:64-i64:64-i128:128-f80:128-n8:16:32:64-S128"
target triple = "x86_64-pc-linux-gnu"

%struct._zend_array = type { %struct._zend_refcounted_h, %union.anon.0, i32, %union.anon.1, i32, i32, i32, i32, i64, ptr }
%struct._zend_refcounted_h = type { i32, %union.anon }
%union.anon = type { i32 }
%union.anon.0 = type { i32 }
%union.anon.1 = type { ptr }
%struct._zval_struct = type { %union._zend_value, %union.anon.3, %union.anon.6 }
%union._zend_value = type { i64 }
%union.anon.3 = type { i32 }
%union.anon.6 = type { i32 }
%struct._phar_archive_data = type { ptr, i32, ptr, i32, ptr, i32, [12 x i8], i64, i64, %struct._zend_array, %struct._zend_array, %struct._zend_array, i32, i32, i32, ptr, ptr, i32, i32, i32, ptr, %struct._phar_metadata_tracker, i32, i16 }
%struct._phar_metadata_tracker = type { %struct._zval_struct, ptr }
%struct._phar_entry_info = type { i32, i32, i32, i32, i32, i32, %struct._phar_metadata_tracker, i32, ptr, i32, i64, i64, i64, ptr, ptr, i32, ptr, ptr, ptr, i8, i32, i16, i16 }

; Function Attrs: nounwind uwtable
define internal void @phar_set_inode(ptr noundef %0) #0 {
  %2 = alloca ptr, align 8
  %3 = alloca [4096 x i8], align 16
  %4 = alloca i64, align 8
  %5 = alloca i64, align 8
  %6 = alloca i64, align 8
  store ptr %0, ptr %2, align 8
  %7 = load ptr, ptr %2, align 8
  %8 = getelementptr inbounds %struct._phar_entry_info, ptr %7, i32 0, i32 7
  %9 = load i32, ptr %8, align 8
  %10 = load ptr, ptr %2, align 8
  %11 = getelementptr inbounds %struct._phar_entry_info, ptr %10, i32 0, i32 17
  %12 = load ptr, ptr %11, align 8
  %13 = getelementptr inbounds %struct._phar_archive_data, ptr %12, i32 0, i32 1
  %14 = load i32, ptr %13, align 8
  %15 = add i32 %9, %14
  %16 = icmp ult i32 4096, %15
  br i1 %16, label %17, label %18

17:                                               ; preds = %1
  br label %28

18:                                               ; preds = %1
  %19 = load ptr, ptr %2, align 8
  %20 = getelementptr inbounds %struct._phar_entry_info, ptr %19, i32 0, i32 7
  %21 = load i32, ptr %20, align 8
  %22 = load ptr, ptr %2, align 8
  %23 = getelementptr inbounds %struct._phar_entry_info, ptr %22, i32 0, i32 17
  %24 = load ptr, ptr %23, align 8
  %25 = getelementptr inbounds %struct._phar_archive_data, ptr %24, i32 0, i32 1
  %26 = load i32, ptr %25, align 8
  %27 = add i32 %21, %26
  br label %28

28:                                               ; preds = %18, %17
  %29 = phi i32 [ 4096, %17 ], [ %27, %18 ]
  %30 = zext i32 %29 to i64
  store i64 %30, ptr %4, align 8
  %31 = load ptr, ptr %2, align 8
  %32 = getelementptr inbounds %struct._phar_entry_info, ptr %31, i32 0, i32 17
  %33 = load ptr, ptr %32, align 8
  %34 = getelementptr inbounds %struct._phar_archive_data, ptr %33, i32 0, i32 1
  %35 = load i32, ptr %34, align 8
  %36 = zext i32 %35 to i64
  %37 = load i64, ptr %4, align 8
  %38 = icmp ult i64 %36, %37
  br i1 %38, label %39, label %46

39:                                               ; preds = %28
  %40 = load ptr, ptr %2, align 8
  %41 = getelementptr inbounds %struct._phar_entry_info, ptr %40, i32 0, i32 17
  %42 = load ptr, ptr %41, align 8
  %43 = getelementptr inbounds %struct._phar_archive_data, ptr %42, i32 0, i32 1
  %44 = load i32, ptr %43, align 8
  %45 = zext i32 %44 to i64
  br label %48

46:                                               ; preds = %28
  %47 = load i64, ptr %4, align 8
  br label %48

48:                                               ; preds = %46, %39
  %49 = phi i64 [ %45, %39 ], [ %47, %46 ]
  store i64 %49, ptr %5, align 8
  %50 = load ptr, ptr %2, align 8
  %51 = getelementptr inbounds %struct._phar_entry_info, ptr %50, i32 0, i32 17
  %52 = load ptr, ptr %51, align 8
  %53 = getelementptr inbounds %struct._phar_archive_data, ptr %52, i32 0, i32 0
  %54 = load ptr, ptr %53, align 8
  %55 = icmp ne ptr %54, null
  br i1 %55, label %56, label %64

56:                                               ; preds = %48
  %57 = getelementptr inbounds [4096 x i8], ptr %3, i64 0, i64 0
  %58 = load ptr, ptr %2, align 8
  %59 = getelementptr inbounds %struct._phar_entry_info, ptr %58, i32 0, i32 17
  %60 = load ptr, ptr %59, align 8
  %61 = getelementptr inbounds %struct._phar_archive_data, ptr %60, i32 0, i32 0
  %62 = load ptr, ptr %61, align 8
  %63 = load i64, ptr %5, align 8
  call void @llvm.memcpy.p0.p0.i64(ptr align 16 %57, ptr align 1 %62, i64 %63, i1 false)
  br label %64

64:                                               ; preds = %56, %48
  %65 = load i64, ptr %4, align 8
  %66 = load i64, ptr %5, align 8
  %67 = sub i64 %65, %66
  %68 = load ptr, ptr %2, align 8
  %69 = getelementptr inbounds %struct._phar_entry_info, ptr %68, i32 0, i32 7
  %70 = load i32, ptr %69, align 8
  %71 = zext i32 %70 to i64
  %72 = icmp ult i64 %67, %71
  br i1 %72, label %73, label %77

73:                                               ; preds = %64
  %74 = load i64, ptr %4, align 8
  %75 = load i64, ptr %5, align 8
  %76 = sub i64 %74, %75
  br label %82

77:                                               ; preds = %64
  %78 = load ptr, ptr %2, align 8
  %79 = getelementptr inbounds %struct._phar_entry_info, ptr %78, i32 0, i32 7
  %80 = load i32, ptr %79, align 8
  %81 = zext i32 %80 to i64
  br label %82

82:                                               ; preds = %77, %73
  %83 = phi i64 [ %76, %73 ], [ %81, %77 ]
  store i64 %83, ptr %6, align 8
  %84 = getelementptr inbounds [4096 x i8], ptr %3, i64 0, i64 0
  %85 = load i64, ptr %5, align 8
  %86 = getelementptr inbounds i8, ptr %84, i64 %85
  %87 = load ptr, ptr %2, align 8
  %88 = getelementptr inbounds %struct._phar_entry_info, ptr %87, i32 0, i32 8
  %89 = load ptr, ptr %88, align 8
  %90 = load i64, ptr %6, align 8
  call void @llvm.memcpy.p0.p0.i64(ptr align 1 %86, ptr align 1 %89, i64 %90, i1 false)
  %91 = getelementptr inbounds [4096 x i8], ptr %3, i64 0, i64 0
  %92 = load i64, ptr %4, align 8
  %93 = call i64 @zend_hash_func(ptr noundef %91, i64 noundef %92)
  %94 = trunc i64 %93 to i16
  %95 = load ptr, ptr %2, align 8
  %96 = getelementptr inbounds %struct._phar_entry_info, ptr %95, i32 0, i32 21
  store i16 %94, ptr %96, align 8
  ret void
}