; Function Attrs: nounwind uwtable
define internal fastcc void @phar_set_inode(ptr nocapture noundef %0) unnamed_addr #0 {
  %2 = alloca [4096 x i8], align 16
  %3 = getelementptr inbounds i8, ptr %0, i64 48
  %4 = load i32, ptr %3, align 8
  %5 = getelementptr inbounds i8, ptr %0, i64 128
  %6 = load ptr, ptr %5, align 8
  %7 = getelementptr inbounds i8, ptr %6, i64 8
  %8 = load i32, ptr %7, align 8
  %9 = add i32 %8, %4
  %narrow = tail call i32 @llvm.umin.i32(i32 %9, i32 4096)
  %10 = tail call i32 @llvm.umin.i32(i32 %narrow, i32 %8)
  %11 = zext nneg i32 %10 to i64
  %12 = load ptr, ptr %6, align 8
  %.not = icmp eq ptr %12, null
  br i1 %.not, label %14, label %13

13:                                               ; preds = %1
  call void @llvm.memcpy.p0.p0.i64(ptr nonnull align 16 %2, ptr nonnull align 1 %12, i64 %11, i1 false)
  br label %14

14:                                               ; preds = %13, %1
  %spec.select = zext nneg i32 %narrow to i64
  %15 = sub nsw i64 %spec.select, %11
  %16 = zext i32 %4 to i64
  %. = tail call i64 @llvm.umin.i64(i64 %15, i64 %16)
  %17 = getelementptr inbounds i8, ptr %2, i64 %11
  %18 = getelementptr inbounds i8, ptr %0, i64 56
  %19 = load ptr, ptr %18, align 8
  call void @llvm.memcpy.p0.p0.i64(ptr nonnull align 1 %17, ptr align 1 %19, i64 %., i1 false)
  %20 = call i64 @zend_hash_func(ptr noundef nonnull %2, i64 noundef %spec.select) #23
  %21 = trunc i64 %20 to i16
  %22 = getelementptr inbounds i8, ptr %0, i64 152
  store i16 %21, ptr %22, align 8
  ret void
}